target datalayout = "e-m:e-p270:32:32-p271:32:32-p272:64:64-i64:64-i128:128-f80:128-n8:16:32:64-S128"
target triple = "x86_64-pc-linux-gnu"

%class.rational = type { %class.mpq }
%class.mpq = type { %class.mpz, %class.mpz }
%class.mpz = type { i32, i8, ptr }
%"struct.opt::model_based_opt::var" = type { i32, %class.rational }
%class.vector = type { ptr }

; Function Attrs: mustprogress nounwind uwtable
define linkonce_odr hidden noundef i32 @_ZNK6vectorIN3opt15model_based_opt3varELb1EjE4sizeEv(ptr noundef nonnull align 8 dereferenceable(8) %0) #7 comdat align 2 {
  %2 = alloca i32, align 4
  %3 = alloca ptr, align 8
  store ptr %0, ptr %3, align 8, !tbaa !18
  %4 = load ptr, ptr %3, align 8
  %5 = getelementptr inbounds nuw %class.vector, ptr %4, i32 0, i32 0
  %6 = load ptr, ptr %5, align 8, !tbaa !39
  %7 = icmp eq ptr %6, null
  br i1 %7, label %8, label %9

8:                                                ; preds = %1
  store i32 0, ptr %2, align 4
  br label %14

9:                                                ; preds = %1
  %10 = getelementptr inbounds nuw %class.vector, ptr %4, i32 0, i32 0
  %11 = load ptr, ptr %10, align 8, !tbaa !39
  %12 = getelementptr inbounds i32, ptr %11, i64 -1
  %13 = load i32, ptr %12, align 4, !tbaa !16
  store i32 %13, ptr %2, align 4
  br label %14

14:                                               ; preds = %9, %8
  %15 = load i32, ptr %2, align 4
  ret i32 %15
}

; Function Attrs: mustprogress uwtable
define linkonce_odr hidden noundef ptr @_ZNK6vectorIN3opt15model_based_opt3varELb1EjE3endEv(ptr noundef nonnull align 8 dereferenceable(8) %0) #4 comdat align 2 {
  %2 = alloca ptr, align 8
  store ptr %0, ptr %2, align 8, !tbaa !18
  %3 = load ptr, ptr %2, align 8
  %4 = getelementptr inbounds nuw %class.vector, ptr %3, i32 0, i32 0
  %5 = load ptr, ptr %4, align 8, !tbaa !39
  %6 = call noundef i32 @_ZNK6vectorIN3opt15model_based_opt3varELb1EjE4sizeEv(ptr noundef nonnull align 8 dereferenceable(8) %3)
  %7 = zext i32 %6 to i64
  %8 = getelementptr inbounds nuw %"struct.opt::model_based_opt::var", ptr %5, i64 %7
  ret ptr %8
}

; Function Attrs: mustprogress nounwind uwtable
define linkonce_odr hidden noundef ptr @_ZNK6vectorIN3opt15model_based_opt3varELb1EjE5beginEv(ptr noundef nonnull align 8 dereferenceable(8) %0) #7 comdat align 2 {
  %2 = alloca ptr, align 8
  store ptr %0, ptr %2, align 8, !tbaa !18
  %3 = load ptr, ptr %2, align 8
  %4 = getelementptr inbounds nuw %class.vector, ptr %3, i32 0, i32 0
  %5 = load ptr, ptr %4, align 8, !tbaa !39
  ret ptr %5
}

; Function Attrs: mustprogress uwtable
define hidden void @_ZN3opt15model_based_opt17mk_coeffs_withoutER6vectorINS0_3varELb1EjERKS3_j(ptr noundef nonnull align 8 dereferenceable(112) %0, ptr noundef nonnull align 8 dereferenceable(8) %1, ptr noundef nonnull align 8 dereferenceable(8) %2, i32 noundef %3) #4 align 2 {
  %5 = alloca ptr, align 8
  %6 = alloca ptr, align 8
  %7 = alloca ptr, align 8
  %8 = alloca i32, align 4
  %9 = alloca ptr, align 8
  %10 = alloca ptr, align 8
  %11 = alloca ptr, align 8
  %12 = alloca ptr, align 8
  store ptr %0, ptr %5, align 8, !tbaa !66
  store ptr %1, ptr %6, align 8, !tbaa !18
  store ptr %2, ptr %7, align 8, !tbaa !18
  store i32 %3, ptr %8, align 4, !tbaa !16
  call void @llvm.lifetime.start.p0(i64 8, ptr %9) #3
  %13 = load ptr, ptr %7, align 8, !tbaa !18
  store ptr %13, ptr %9, align 8, !tbaa !18
  call void @llvm.lifetime.start.p0(i64 8, ptr %10) #3
  %14 = load ptr, ptr %9, align 8, !tbaa !18
  %15 = call noundef ptr @_ZNK6vectorIN3opt15model_based_opt3varELb1EjE5beginEv(ptr noundef nonnull align 8 dereferenceable(8) %14)
  store ptr %15, ptr %10, align 8, !tbaa !20
  call void @llvm.lifetime.start.p0(i64 8, ptr %11) #3
  %16 = load ptr, ptr %9, align 8, !tbaa !18
  %17 = call noundef ptr @_ZNK6vectorIN3opt15model_based_opt3varELb1EjE3endEv(ptr noundef nonnull align 8 dereferenceable(8) %16)
  store ptr %17, ptr %11, align 8, !tbaa !20
  br label %18

18:                                               ; preds = %35, %4
  %19 = load ptr, ptr %10, align 8, !tbaa !20
  %20 = load ptr, ptr %11, align 8, !tbaa !20
  %21 = icmp ne ptr %19, %20
  br i1 %21, label %23, label %22

22:                                               ; preds = %18
  call void @llvm.lifetime.end.p0(i64 8, ptr %11) #3
  call void @llvm.lifetime.end.p0(i64 8, ptr %10) #3
  call void @llvm.lifetime.end.p0(i64 8, ptr %9) #3
  br label %38

23:                                               ; preds = %18
  call void @llvm.lifetime.start.p0(i64 8, ptr %12) #3
  %24 = load ptr, ptr %10, align 8, !tbaa !20
  store ptr %24, ptr %12, align 8, !tbaa !20
  %25 = load ptr, ptr %12, align 8, !tbaa !20
  %26 = getelementptr inbounds nuw %"struct.opt::model_based_opt::var", ptr %25, i32 0, i32 0
  %27 = load i32, ptr %26, align 8, !tbaa !22
  %28 = load i32, ptr %8, align 4, !tbaa !16
  %29 = icmp ne i32 %27, %28
  br i1 %29, label %30, label %34

30:                                               ; preds = %23
  %31 = load ptr, ptr %6, align 8, !tbaa !18
  %32 = load ptr, ptr %12, align 8, !tbaa !20
  %33 = call noundef nonnull align 8 dereferenceable(8) ptr @_ZN6vectorIN3opt15model_based_opt3varELb1EjE9push_backERKS2_(ptr noundef nonnull align 8 dereferenceable(8) %31, ptr noundef nonnull align 8 dereferenceable(40) %32)
  br label %34

34:                                               ; preds = %30, %23
  call void @llvm.lifetime.end.p0(i64 8, ptr %12) #3
  br label %35

35:                                               ; preds = %34
  %36 = load ptr, ptr %10, align 8, !tbaa !20
  %37 = getelementptr inbounds nuw %"struct.opt::model_based_opt::var", ptr %36, i32 1
  store ptr %37, ptr %10, align 8, !tbaa !20
  br label %18

38:                                               ; preds = %22
  ret void
}