; Function Attrs: mustprogress uwtable
define hidden void @_ZN3opt15model_based_opt17mk_coeffs_withoutER6vectorINS0_3varELb1EjERKS3_j(ptr noundef nonnull readnone align 8 captures(none) dereferenceable(112) %0, ptr noundef nonnull align 8 dereferenceable(8) %1, ptr noundef nonnull readonly align 8 captures(none) dereferenceable(8) %2, i32 noundef %3) local_unnamed_addr #3 align 2 {
  %5 = load ptr, ptr %2, align 8, !tbaa !16
  %6 = icmp eq ptr %5, null
  br i1 %6, label %._crit_edge, label %_ZNK6vectorIN3opt15model_based_opt3varELb1EjE3endEv.exit

_ZNK6vectorIN3opt15model_based_opt3varELb1EjE3endEv.exit: ; preds = %4
  %7 = getelementptr inbounds i8, ptr %5, i64 -4
  %8 = load i32, ptr %7, align 4, !tbaa !19
  %9 = zext i32 %8 to i64
  %10 = getelementptr inbounds nuw %"struct.opt::model_based_opt::var", ptr %5, i64 %9
  %.not11 = icmp eq i32 %8, 0
  br i1 %.not11, label %._crit_edge, label %.lr.ph

._crit_edge:                                      ; preds = %14, %4, %_ZNK6vectorIN3opt15model_based_opt3varELb1EjE3endEv.exit
  ret void

.lr.ph:                                           ; preds = %_ZNK6vectorIN3opt15model_based_opt3varELb1EjE3endEv.exit, %14
  %.012 = phi ptr [ %15, %14 ], [ %5, %_ZNK6vectorIN3opt15model_based_opt3varELb1EjE3endEv.exit ]
  %11 = load i32, ptr %.012, align 8, !tbaa !27
  %.not10 = icmp eq i32 %11, %3
  br i1 %.not10, label %14, label %12

12:                                               ; preds = %.lr.ph
  %13 = tail call noundef nonnull align 8 dereferenceable(8) ptr @_ZN6vectorIN3opt15model_based_opt3varELb1EjE9push_backERKS2_(ptr noundef nonnull align 8 dereferenceable(8) %1, ptr noundef nonnull align 8 dereferenceable(40) %.012)
  br label %14

14:                                               ; preds = %12, %.lr.ph
  %15 = getelementptr inbounds nuw i8, ptr %.012, i64 40
  %.not = icmp eq ptr %15, %10
  br i1 %.not, label %._crit_edge, label %.lr.ph
}